; ModuleID = 'bench/jq/original/iso8859_10.ll'
source_filename = "bench/jq/original/iso8859_10.ll"
target datalayout = "e-m:e-p270:32:32-p271:32:32-p272:64:64-i64:64-i128:128-f80:128-n8:16:32:64-S128"
target triple = "x86_64-pc-linux-gnu"

%struct.OnigPairCaseFoldCodes = type { i32, i32 }

@.str = private unnamed_addr constant [12 x i8] c"ISO-8859-10\00", align 1
@OnigEncodingISO_8859_10 = dso_local local_unnamed_addr global { ptr, ptr, i32, i32, ptr, ptr, ptr, ptr, ptr, ptr, ptr, ptr, ptr, ptr, ptr, ptr, ptr, ptr, ptr, i32, i32, i32, [4 x i8] } { ptr @onigenc_single_byte_mbc_enc_len, ptr @.str, i32 1, i32 1, ptr @onigenc_is_mbc_newline_0x0a, ptr @onigenc_single_byte_mbc_to_code, ptr @onigenc_single_byte_code_to_mbclen, ptr @onigenc_single_byte_code_to_mbc, ptr @mbc_case_fold, ptr @apply_all_case_fold, ptr @get_case_fold_codes_by_str, ptr @onigenc_minimum_property_name_to_ctype, ptr @is_code_ctype, ptr @onigenc_not_support_get_ctype_code_range, ptr @onigenc_single_byte_left_adjust_char_head, ptr @onigenc_always_true_is_allowed_reverse_match, ptr null, ptr null, ptr @onigenc_always_true_is_valid_mbc_string, i32 5, i32 0, i32 0, [4 x i8] zeroinitializer }, align 8
@EncISO_8859_10_ToLowerCaseTable = internal unnamed_addr constant [256 x i8] c"\00\01\02\03\04\05\06\07\08\09\0A\0B\0C\0D\0E\0F\10\11\12\13\14\15\16\17\18\19\1A\1B\1C\1D\1E\1F !\22#$%&'()*+,-./0123456789:;<=>?@abcdefghijklmnopqrstuvwxyz[\\]^_`abcdefghijklmnopqrstuvwxyz{|}~\7F\80\81\82\83\84\85\86\87\88\89\8A\8B\8C\8D\8E\8F\90\91\92\93\94\95\96\97\98\99\9A\9B\9C\9D\9E\9F\A0\B1\B2\B3\B4\B5\B6\A7\B8\B9\BA\BB\BC\AD\BE\BF\B0\B1\B2\B3\B4\B5\B6\B7\B8\B9\BA\BB\BC\BD\BE\BF\E0\E1\E2\E3\E4\E5\E6\E7\E8\E9\EA\EB\EC\ED\EE\EF\F0\F1\F2\F3\F4\F5\F6\F7\F8\F9\FA\FB\FC\FD\FE\DF\E0\E1\E2\E3\E4\E5\E6\E7\E8\E9\EA\EB\EC\ED\EE\EF\F0\F1\F2\F3\F4\F5\F6\F7\F8\F9\FA\FB\FC\FD\FE\FF", align 16
@CaseFoldMap = internal constant [44 x %struct.OnigPairCaseFoldCodes] [%struct.OnigPairCaseFoldCodes { i32 161, i32 177 }, %struct.OnigPairCaseFoldCodes { i32 162, i32 178 }, %struct.OnigPairCaseFoldCodes { i32 163, i32 179 }, %struct.OnigPairCaseFoldCodes { i32 164, i32 180 }, %struct.OnigPairCaseFoldCodes { i32 165, i32 181 }, %struct.OnigPairCaseFoldCodes { i32 166, i32 182 }, %struct.OnigPairCaseFoldCodes { i32 168, i32 184 }, %struct.OnigPairCaseFoldCodes { i32 169, i32 185 }, %struct.OnigPairCaseFoldCodes { i32 170, i32 186 }, %struct.OnigPairCaseFoldCodes { i32 171, i32 187 }, %struct.OnigPairCaseFoldCodes { i32 172, i32 188 }, %struct.OnigPairCaseFoldCodes { i32 174, i32 190 }, %struct.OnigPairCaseFoldCodes { i32 175, i32 191 }, %struct.OnigPairCaseFoldCodes { i32 192, i32 224 }, %struct.OnigPairCaseFoldCodes { i32 193, i32 225 }, %struct.OnigPairCaseFoldCodes { i32 194, i32 226 }, %struct.OnigPairCaseFoldCodes { i32 195, i32 227 }, %struct.OnigPairCaseFoldCodes { i32 196, i32 228 }, %struct.OnigPairCaseFoldCodes { i32 197, i32 229 }, %struct.OnigPairCaseFoldCodes { i32 198, i32 230 }, %struct.OnigPairCaseFoldCodes { i32 199, i32 231 }, %struct.OnigPairCaseFoldCodes { i32 200, i32 232 }, %struct.OnigPairCaseFoldCodes { i32 201, i32 233 }, %struct.OnigPairCaseFoldCodes { i32 202, i32 234 }, %struct.OnigPairCaseFoldCodes { i32 203, i32 235 }, %struct.OnigPairCaseFoldCodes { i32 204, i32 236 }, %struct.OnigPairCaseFoldCodes { i32 205, i32 237 }, %struct.OnigPairCaseFoldCodes { i32 206, i32 238 }, %struct.OnigPairCaseFoldCodes { i32 207, i32 239 }, %struct.OnigPairCaseFoldCodes { i32 208, i32 240 }, %struct.OnigPairCaseFoldCodes { i32 209, i32 241 }, %struct.OnigPairCaseFoldCodes { i32 210, i32 242 }, %struct.OnigPairCaseFoldCodes { i32 211, i32 243 }, %struct.OnigPairCaseFoldCodes { i32 212, i32 244 }, %struct.OnigPairCaseFoldCodes { i32 213, i32 245 }, %struct.OnigPairCaseFoldCodes { i32 214, i32 246 }, %struct.OnigPairCaseFoldCodes { i32 215, i32 247 }, %struct.OnigPairCaseFoldCodes { i32 216, i32 248 }, %struct.OnigPairCaseFoldCodes { i32 217, i32 249 }, %struct.OnigPairCaseFoldCodes { i32 218, i32 250 }, %struct.OnigPairCaseFoldCodes { i32 219, i32 251 }, %struct.OnigPairCaseFoldCodes { i32 220, i32 252 }, %struct.OnigPairCaseFoldCodes { i32 221, i32 253 }, %struct.OnigPairCaseFoldCodes { i32 222, i32 254 }], align 16
@EncISO_8859_10_CtypeTable = internal unnamed_addr constant [256 x i16] [i16 16392, i16 16392, i16 16392, i16 16392, i16 16392, i16 16392, i16 16392, i16 16392, i16 16392, i16 16908, i16 16905, i16 16904, i16 16904, i16 16904, i16 16392, i16 16392, i16 16392, i16 16392, i16 16392, i16 16392, i16 16392, i16 16392, i16 16392, i16 16392, i16 16392, i16 16392, i16 16392, i16 16392, i16 16392, i16 16392, i16 16392, i16 16392, i16 17028, i16 16800, i16 16800, i16 16800, i16 16800, i16 16800, i16 16800, i16 16800, i16 16800, i16 16800, i16 16800, i16 16800, i16 16800, i16 16800, i16 16800, i16 16800, i16 30896, i16 30896, i16 30896, i16 30896, i16 30896, i16 30896, i16 30896, i16 30896, i16 30896, i16 30896, i16 16800, i16 16800, i16 16800, i16 16800, i16 16800, i16 16800, i16 16800, i16 31906, i16 31906, i16 31906, i16 31906, i16 31906, i16 31906, i16 29858, i16 29858, i16 29858, i16 29858, i16 29858, i16 29858, i16 29858, i16 29858, i16 29858, i16 29858, i16 29858, i16 29858, i16 29858, i16 29858, i16 29858, i16 29858, i16 29858, i16 29858, i16 29858, i16 29858, i16 16800, i16 16800, i16 16800, i16 16800, i16 20896, i16 16800, i16 30946, i16 30946, i16 30946, i16 30946, i16 30946, i16 30946, i16 28898, i16 28898, i16 28898, i16 28898, i16 28898, i16 28898, i16 28898, i16 28898, i16 28898, i16 28898, i16 28898, i16 28898, i16 28898, i16 28898, i16 28898, i16 28898, i16 28898, i16 28898, i16 28898, i16 28898, i16 16800, i16 16800, i16 16800, i16 16800, i16 16392, i16 8, i16 8, i16 8, i16 8, i16 8, i16 8, i16 8, i16 8, i16 8, i16 8, i16 8, i16 8, i16 8, i16 8, i16 8, i16 8, i16 8, i16 8, i16 8, i16 8, i16 8, i16 8, i16 8, i16 8, i16 8, i16 8, i16 8, i16 8, i16 8, i16 8, i16 8, i16 8, i16 644, i16 13474, i16 13474, i16 13474, i16 13474, i16 13474, i16 13474, i16 160, i16 13474, i16 13474, i16 13474, i16 13474, i16 13474, i16 416, i16 13474, i16 13474, i16 160, i16 12514, i16 12514, i16 12514, i16 12514, i16 12514, i16 12514, i16 416, i16 12514, i16 12514, i16 12514, i16 12514, i16 12514, i16 416, i16 12514, i16 12514, i16 13474, i16 13474, i16 13474, i16 13474, i16 13474, i16 13474, i16 13474, i16 13474, i16 13474, i16 13474, i16 13474, i16 13474, i16 13474, i16 13474, i16 13474, i16 13474, i16 13474, i16 13474, i16 13474, i16 13474, i16 13474, i16 13474, i16 13474, i16 13474, i16 13474, i16 13474, i16 13474, i16 13474, i16 13474, i16 13474, i16 13474, i16 12514, i16 12514, i16 12514, i16 12514, i16 12514, i16 12514, i16 12514, i16 12514, i16 12514, i16 12514, i16 12514, i16 12514, i16 12514, i16 12514, i16 12514, i16 12514, i16 12514, i16 12514, i16 12514, i16 12514, i16 12514, i16 12514, i16 12514, i16 12514, i16 12514, i16 12514, i16 12514, i16 12514, i16 12514, i16 12514, i16 12514, i16 12514, i16 12514], align 16

declare i32 @onigenc_single_byte_mbc_enc_len(ptr noundef) #0

declare i32 @onigenc_is_mbc_newline_0x0a(ptr noundef, ptr noundef) #0

declare i32 @onigenc_single_byte_mbc_to_code(ptr noundef, ptr noundef) #0

declare i32 @onigenc_single_byte_code_to_mbclen(i32 noundef) #0

declare i32 @onigenc_single_byte_code_to_mbc(i32 noundef, ptr noundef) #0

; Function Attrs: mustprogress nofree norecurse nosync nounwind willreturn memory(read, argmem: readwrite, inaccessiblemem: none) uwtable
define internal range(i32 1, 3) i32 @mbc_case_fold(i32 noundef %0, ptr noundef captures(none) %1, ptr readnone captures(none) %2, ptr noundef writeonly captures(none) initializes((0, 1)) %3) #1 {
  %5 = load ptr, ptr %1, align 8, !tbaa !4
  %6 = load i8, ptr %5, align 1, !tbaa !9
  %7 = icmp ne i8 %6, -33
  %8 = and i32 %0, 1073741824
  %.not = icmp eq i32 %8, 0
  %or.cond = or i1 %.not, %7
  br i1 %or.cond, label %11, label %9

9:                                                ; preds = %4
  %10 = getelementptr inbounds nuw i8, ptr %3, i64 1
  store i8 115, ptr %3, align 1, !tbaa !9
  store i8 115, ptr %10, align 1, !tbaa !9
  br label %20

11:                                               ; preds = %4
  %12 = and i32 %0, 1
  %13 = icmp eq i32 %12, 0
  %14 = icmp sgt i8 %6, -1
  %or.cond14 = or i1 %13, %14
  br i1 %or.cond14, label %15, label %19

15:                                               ; preds = %11
  %16 = zext i8 %6 to i64
  %17 = getelementptr inbounds nuw [256 x i8], ptr @EncISO_8859_10_ToLowerCaseTable, i64 0, i64 %16
  %18 = load i8, ptr %17, align 1, !tbaa !9
  br label %19

19:                                               ; preds = %11, %15
  %storemerge = phi i8 [ %18, %15 ], [ %6, %11 ]
  store i8 %storemerge, ptr %3, align 1, !tbaa !9
  br label %20

20:                                               ; preds = %19, %9
  %.0 = phi i32 [ 1, %19 ], [ 2, %9 ]
  %.pn = load ptr, ptr %1, align 8, !tbaa !4
  %storemerge13 = getelementptr inbounds nuw i8, ptr %.pn, i64 1
  store ptr %storemerge13, ptr %1, align 8, !tbaa !4
  ret i32 %.0
}

; Function Attrs: nounwind uwtable
define internal i32 @apply_all_case_fold(i32 noundef %0, ptr noundef %1, ptr noundef %2) #2 {
  %4 = tail call i32 @onigenc_apply_all_case_fold_with_map(i32 noundef 44, ptr noundef nonnull @CaseFoldMap, i32 noundef 1, i32 noundef %0, ptr noundef %1, ptr noundef %2) #4
  ret i32 %4
}

; Function Attrs: nounwind uwtable
define internal i32 @get_case_fold_codes_by_str(i32 noundef %0, ptr noundef %1, ptr noundef %2, ptr noundef %3) #2 {
  %5 = tail call i32 @onigenc_get_case_fold_codes_by_str_with_map(i32 noundef 44, ptr noundef nonnull @CaseFoldMap, i32 noundef 1, i32 noundef %0, ptr noundef %1, ptr noundef %2, ptr noundef %3) #4
  ret i32 %5
}

declare i32 @onigenc_minimum_property_name_to_ctype(ptr noundef, ptr noundef, ptr noundef) #0

; Function Attrs: mustprogress nofree norecurse nosync nounwind willreturn memory(none) uwtable
define internal range(i32 0, 2) i32 @is_code_ctype(i32 noundef %0, i32 noundef %1) #3 {
  %3 = icmp ult i32 %0, 256
  br i1 %3, label %4, label %11

4:                                                ; preds = %2
  %5 = zext nneg i32 %0 to i64
  %6 = getelementptr inbounds nuw [256 x i16], ptr @EncISO_8859_10_CtypeTable, i64 0, i64 %5
  %7 = load i16, ptr %6, align 2, !tbaa !10
  %8 = zext i16 %7 to i32
  %9 = lshr i32 %8, %1
  %10 = and i32 %9, 1
  br label %11

11:                                               ; preds = %2, %4
  %.0 = phi i32 [ %10, %4 ], [ 0, %2 ]
  ret i32 %.0
}

declare i32 @onigenc_not_support_get_ctype_code_range(i32 noundef, ptr noundef, ptr noundef) #0

declare ptr @onigenc_single_byte_left_adjust_char_head(ptr noundef, ptr noundef) #0

declare i32 @onigenc_always_true_is_allowed_reverse_match(ptr noundef, ptr noundef) #0

declare i32 @onigenc_always_true_is_valid_mbc_string(ptr noundef, ptr noundef) #0

declare i32 @onigenc_apply_all_case_fold_with_map(i32 noundef, ptr noundef, i32 noundef, i32 noundef, ptr noundef, ptr noundef) local_unnamed_addr #0

declare i32 @onigenc_get_case_fold_codes_by_str_with_map(i32 noundef, ptr noundef, i32 noundef, i32 noundef, ptr noundef, ptr noundef, ptr noundef) local_unnamed_addr #0


!llvm.module.flags = !{!0, !1, !2, !3}

!0 = !{i32 1, !"wchar_size", i32 4}
!1 = !{i32 8, !"PIC Level", i32 2}
!2 = !{i32 7, !"PIE Level", i32 2}
!3 = !{i32 7, !"uwtable", i32 2}
!4 = !{!5, !5, i64 0}
!5 = !{!"p1 omnipotent char", !6, i64 0}
!6 = !{!"any pointer", !7, i64 0}
!7 = !{!"omnipotent char", !8, i64 0}
!8 = !{!"Simple C/C++ TBAA"}
!9 = !{!7, !7, i64 0}
!10 = !{!11, !11, i64 0}
!11 = !{!"short", !7, i64 0}
